target datalayout = "e-m:e-p270:32:32-p271:32:32-p272:64:64-i64:64-i128:128-f80:128-n8:16:32:64-S128"
target triple = "x86_64-pc-linux-gnu"

%union.pthread_mutex_t = type { %struct.__pthread_mutex_s }
%struct.__pthread_mutex_s = type { i32, i32, i32, i32, i32, i16, i16, %struct.__pthread_internal_list }
%struct.__pthread_internal_list = type { ptr, ptr }
%struct.pmix_tma = type { ptr, ptr, ptr, ptr, ptr, ptr, ptr, ptr }
%struct.pmix_mca_base_var_enum_t = type { %struct.pmix_object_t, i8, ptr, ptr, ptr, ptr, ptr, ptr, i32, ptr }
%struct.pmix_object_t = type { %union.pthread_mutex_t, ptr, i32, %struct.pmix_tma }
%struct.pmix_mca_base_var_enum_flag_t = type { %struct.pmix_mca_base_var_enum_t, ptr }
%struct.pmix_mca_base_var_enum_value_flag_t = type { i32, ptr, i32 }

; Function Attrs: nounwind uwtable
define internal i32 @enum_value_from_string_flag(ptr noundef %0, ptr noundef %1, ptr noundef %2) #0 {
  %4 = alloca i32, align 4
  %5 = alloca ptr, align 8
  %6 = alloca ptr, align 8
  %7 = alloca ptr, align 8
  %8 = alloca ptr, align 8
  %9 = alloca i32, align 4
  %10 = alloca i32, align 4
  %11 = alloca i32, align 4
  %12 = alloca i32, align 4
  %13 = alloca ptr, align 8
  %14 = alloca i8, align 1
  %15 = alloca ptr, align 8
  %16 = alloca i32, align 4
  %17 = alloca i32, align 4
  %18 = alloca i8, align 1
  %19 = alloca i8, align 1
  %20 = alloca i32, align 4
  store ptr %0, ptr %5, align 8, !tbaa !3
  store ptr %1, ptr %6, align 8, !tbaa !49
  store ptr %2, ptr %7, align 8, !tbaa !45
  call void @llvm.lifetime.start.p0(i64 8, ptr %8) #13
  %21 = load ptr, ptr %5, align 8, !tbaa !3
  store ptr %21, ptr %8, align 8, !tbaa !30
  call void @llvm.lifetime.start.p0(i64 4, ptr %9) #13
  call void @llvm.lifetime.start.p0(i64 4, ptr %10) #13
  call void @llvm.lifetime.start.p0(i64 4, ptr %11) #13
  call void @llvm.lifetime.start.p0(i64 4, ptr %12) #13
  call void @llvm.lifetime.start.p0(i64 8, ptr %13) #13
  call void @llvm.lifetime.start.p0(i64 1, ptr %14) #13
  call void @llvm.lifetime.start.p0(i64 8, ptr %15) #13
  %22 = load ptr, ptr %5, align 8, !tbaa !3
  %23 = getelementptr inbounds nuw %struct.pmix_mca_base_var_enum_t, ptr %22, i32 0, i32 3
  %24 = load ptr, ptr %23, align 8, !tbaa !17
  %25 = load ptr, ptr %5, align 8, !tbaa !3
  %26 = call i32 %24(ptr noundef %25, ptr noundef %10)
  store i32 %26, ptr %11, align 4, !tbaa !24
  %27 = load i32, ptr %11, align 4, !tbaa !24
  %28 = icmp ne i32 0, %27
  br i1 %28, label %29, label %31

29:                                               ; preds = %3
  %30 = load i32, ptr %11, align 4, !tbaa !24
  store i32 %30, ptr %4, align 4
  store i32 1, ptr %16, align 4
  br label %150

31:                                               ; preds = %3
  %32 = load ptr, ptr %6, align 8, !tbaa !49
  %33 = call ptr @PMIx_Argv_split(ptr noundef %32, i32 noundef 44)
  store ptr %33, ptr %13, align 8, !tbaa !47
  %34 = load ptr, ptr %13, align 8, !tbaa !47
  %35 = icmp eq ptr null, %34
  br i1 %35, label %36, label %37

36:                                               ; preds = %31
  store i32 -27, ptr %4, align 4
  store i32 1, ptr %16, align 4
  br label %150

37:                                               ; preds = %31
  store i32 0, ptr %12, align 4, !tbaa !24
  call void @llvm.lifetime.start.p0(i64 4, ptr %17) #13
  store i32 0, ptr %17, align 4, !tbaa !24
  br label %38

38:                                               ; preds = %141, %37
  %39 = load ptr, ptr %13, align 8, !tbaa !47
  %40 = load i32, ptr %17, align 4, !tbaa !24
  %41 = sext i32 %40 to i64
  %42 = getelementptr inbounds ptr, ptr %39, i64 %41
  %43 = load ptr, ptr %42, align 8, !tbaa !49
  %44 = icmp ne ptr %43, null
  br i1 %44, label %46, label %45

45:                                               ; preds = %38
  store i32 2, ptr %16, align 4
  br label %144

46:                                               ; preds = %38
  %47 = load ptr, ptr %13, align 8, !tbaa !47
  %48 = load i32, ptr %17, align 4, !tbaa !24
  %49 = sext i32 %48 to i64
  %50 = getelementptr inbounds ptr, ptr %47, i64 %49
  %51 = load ptr, ptr %50, align 8, !tbaa !49
  %52 = call i64 @strtol(ptr noundef %51, ptr noundef %15, i32 noundef 0) #13
  %53 = trunc i64 %52 to i32
  store i32 %53, ptr %9, align 4, !tbaa !24
  %54 = load ptr, ptr %15, align 8, !tbaa !49
  %55 = getelementptr inbounds i8, ptr %54, i64 0
  %56 = load i8, ptr %55, align 1, !tbaa !50
  %57 = sext i8 %56 to i32
  %58 = icmp eq i32 %57, 0
  %59 = zext i1 %58 to i8
  store i8 %59, ptr %14, align 1, !tbaa !95
  call void @llvm.lifetime.start.p0(i64 1, ptr %18) #13
  store i8 0, ptr %18, align 1, !tbaa !95
  call void @llvm.lifetime.start.p0(i64 1, ptr %19) #13
  store i8 0, ptr %19, align 1, !tbaa !95
  call void @llvm.lifetime.start.p0(i64 4, ptr %20) #13
  store i32 0, ptr %20, align 4, !tbaa !24
  br label %60

60:                                               ; preds = %121, %46
  %61 = load i32, ptr %20, align 4, !tbaa !24
  %62 = load i32, ptr %10, align 4, !tbaa !24
  %63 = icmp slt i32 %61, %62
  br i1 %63, label %65, label %64

64:                                               ; preds = %60
  store i32 5, ptr %16, align 4
  br label %124

65:                                               ; preds = %60
  %66 = load i8, ptr %14, align 1, !tbaa !95, !range !96, !noundef !97
  %67 = trunc i8 %66 to i1
  br i1 %67, label %68, label %79

68:                                               ; preds = %65
  %69 = load i32, ptr %9, align 4, !tbaa !24
  %70 = load ptr, ptr %8, align 8, !tbaa !30
  %71 = getelementptr inbounds nuw %struct.pmix_mca_base_var_enum_flag_t, ptr %70, i32 0, i32 1
  %72 = load ptr, ptr %71, align 8, !tbaa !32
  %73 = load i32, ptr %17, align 4, !tbaa !24
  %74 = sext i32 %73 to i64
  %75 = getelementptr inbounds %struct.pmix_mca_base_var_enum_value_flag_t, ptr %72, i64 %74
  %76 = getelementptr inbounds nuw %struct.pmix_mca_base_var_enum_value_flag_t, ptr %75, i32 0, i32 0
  %77 = load i32, ptr %76, align 8, !tbaa !87
  %78 = icmp eq i32 %69, %77
  br i1 %78, label %95, label %79

79:                                               ; preds = %68, %65
  %80 = load ptr, ptr %13, align 8, !tbaa !47
  %81 = load i32, ptr %17, align 4, !tbaa !24
  %82 = sext i32 %81 to i64
  %83 = getelementptr inbounds ptr, ptr %80, i64 %82
  %84 = load ptr, ptr %83, align 8, !tbaa !49
  %85 = load ptr, ptr %8, align 8, !tbaa !30
  %86 = getelementptr inbounds nuw %struct.pmix_mca_base_var_enum_flag_t, ptr %85, i32 0, i32 1
  %87 = load ptr, ptr %86, align 8, !tbaa !32
  %88 = load i32, ptr %17, align 4, !tbaa !24
  %89 = sext i32 %88 to i64
  %90 = getelementptr inbounds %struct.pmix_mca_base_var_enum_value_flag_t, ptr %87, i64 %89
  %91 = getelementptr inbounds nuw %struct.pmix_mca_base_var_enum_value_flag_t, ptr %90, i32 0, i32 1
  %92 = load ptr, ptr %91, align 8, !tbaa !42
  %93 = call i32 @strcasecmp(ptr noundef %84, ptr noundef %92) #14
  %94 = icmp eq i32 0, %93
  br i1 %94, label %95, label %120

95:                                               ; preds = %79, %68
  store i8 1, ptr %18, align 1, !tbaa !95
  %96 = load i32, ptr %12, align 4, !tbaa !24
  %97 = load ptr, ptr %8, align 8, !tbaa !30
  %98 = getelementptr inbounds nuw %struct.pmix_mca_base_var_enum_flag_t, ptr %97, i32 0, i32 1
  %99 = load ptr, ptr %98, align 8, !tbaa !32
  %100 = load i32, ptr %17, align 4, !tbaa !24
  %101 = sext i32 %100 to i64
  %102 = getelementptr inbounds %struct.pmix_mca_base_var_enum_value_flag_t, ptr %99, i64 %101
  %103 = getelementptr inbounds nuw %struct.pmix_mca_base_var_enum_value_flag_t, ptr %102, i32 0, i32 2
  %104 = load i32, ptr %103, align 8, !tbaa !88
  %105 = and i32 %96, %104
  %106 = icmp ne i32 %105, 0
  br i1 %106, label %107, label %108

107:                                              ; preds = %95
  store i8 1, ptr %19, align 1, !tbaa !95
  br label %119

108:                                              ; preds = %95
  %109 = load ptr, ptr %8, align 8, !tbaa !30
  %110 = getelementptr inbounds nuw %struct.pmix_mca_base_var_enum_flag_t, ptr %109, i32 0, i32 1
  %111 = load ptr, ptr %110, align 8, !tbaa !32
  %112 = load i32, ptr %17, align 4, !tbaa !24
  %113 = sext i32 %112 to i64
  %114 = getelementptr inbounds %struct.pmix_mca_base_var_enum_value_flag_t, ptr %111, i64 %113
  %115 = getelementptr inbounds nuw %struct.pmix_mca_base_var_enum_value_flag_t, ptr %114, i32 0, i32 0
  %116 = load i32, ptr %115, align 8, !tbaa !87
  %117 = load i32, ptr %12, align 4, !tbaa !24
  %118 = or i32 %117, %116
  store i32 %118, ptr %12, align 4, !tbaa !24
  br label %119

119:                                              ; preds = %108, %107
  store i32 5, ptr %16, align 4
  br label %124

120:                                              ; preds = %79
  br label %121

121:                                              ; preds = %120
  %122 = load i32, ptr %20, align 4, !tbaa !24
  %123 = add nsw i32 %122, 1
  store i32 %123, ptr %20, align 4, !tbaa !24
  br label %60, !llvm.loop !100

124:                                              ; preds = %119, %64
  call void @llvm.lifetime.end.p0(i64 4, ptr %20) #13
  br label %125

125:                                              ; preds = %124
  %126 = load i8, ptr %18, align 1, !tbaa !95, !range !96, !noundef !97
  %127 = trunc i8 %126 to i1
  br i1 %127, label %128, label %131

128:                                              ; preds = %125
  %129 = load i8, ptr %19, align 1, !tbaa !95, !range !96, !noundef !97
  %130 = trunc i8 %129 to i1
  br i1 %130, label %131, label %137

131:                                              ; preds = %128, %125
  %132 = load ptr, ptr %13, align 8, !tbaa !47
  call void @PMIx_Argv_free(ptr noundef %132)
  %133 = load i8, ptr %18, align 1, !tbaa !95, !range !96, !noundef !97
  %134 = trunc i8 %133 to i1
  %135 = xor i1 %134, true
  %136 = select i1 %135, i32 -65, i32 -27
  store i32 %136, ptr %4, align 4
  store i32 1, ptr %16, align 4
  br label %138

137:                                              ; preds = %128
  store i32 0, ptr %16, align 4
  br label %138

138:                                              ; preds = %137, %131
  call void @llvm.lifetime.end.p0(i64 1, ptr %19) #13
  call void @llvm.lifetime.end.p0(i64 1, ptr %18) #13
  %139 = load i32, ptr %16, align 4
  switch i32 %139, label %144 [
    i32 0, label %140
  ]

140:                                              ; preds = %138
  br label %141

141:                                              ; preds = %140
  %142 = load i32, ptr %17, align 4, !tbaa !24
  %143 = add nsw i32 %142, 1
  store i32 %143, ptr %17, align 4, !tbaa !24
  br label %38, !llvm.loop !101

144:                                              ; preds = %138, %45
  call void @llvm.lifetime.end.p0(i64 4, ptr %17) #13
  %145 = load i32, ptr %16, align 4
  switch i32 %145, label %150 [
    i32 2, label %146
  ]

146:                                              ; preds = %144
  %147 = load ptr, ptr %13, align 8, !tbaa !47
  call void @PMIx_Argv_free(ptr noundef %147)
  %148 = load i32, ptr %12, align 4, !tbaa !24
  %149 = load ptr, ptr %7, align 8, !tbaa !45
  store i32 %148, ptr %149, align 4, !tbaa !24
  store i32 0, ptr %4, align 4
  store i32 1, ptr %16, align 4
  br label %150

150:                                              ; preds = %146, %144, %36, %29
  call void @llvm.lifetime.end.p0(i64 8, ptr %15) #13
  call void @llvm.lifetime.end.p0(i64 1, ptr %14) #13
  call void @llvm.lifetime.end.p0(i64 8, ptr %13) #13
  call void @llvm.lifetime.end.p0(i64 4, ptr %12) #13
  call void @llvm.lifetime.end.p0(i64 4, ptr %11) #13
  call void @llvm.lifetime.end.p0(i64 4, ptr %10) #13
  call void @llvm.lifetime.end.p0(i64 4, ptr %9) #13
  call void @llvm.lifetime.end.p0(i64 8, ptr %8) #13
  %151 = load i32, ptr %4, align 4
  ret i32 %151
}